target datalayout = "e-m:e-p270:32:32-p271:32:32-p272:64:64-i64:64-i128:128-f80:128-n8:16:32:64-S128"
target triple = "x86_64-pc-linux-gnu"

%struct.tag_AlsaPcmInfo = type { ptr, ptr, ptr, i32, i32, i32, i64, i16, i16, ptr }

; Function Attrs: nounwind uwtable
define hidden i64 @estimatePositionFromAvail(ptr noundef %0, i32 noundef %1, i64 noundef %2, i32 noundef %3) #0 {
  %5 = alloca i64, align 8
  %6 = alloca ptr, align 8
  %7 = alloca i32, align 4
  %8 = alloca i64, align 8
  %9 = alloca i32, align 4
  store ptr %0, ptr %6, align 8
  store i32 %1, ptr %7, align 4
  store i64 %2, ptr %8, align 8
  store i32 %3, ptr %9, align 4
  %10 = load i32, ptr %7, align 4
  %11 = icmp ne i32 %10, 0
  br i1 %11, label %12, label %22

12:                                               ; preds = %4
  %13 = load i64, ptr %8, align 8
  %14 = load ptr, ptr %6, align 8
  %15 = getelementptr inbounds %struct.tag_AlsaPcmInfo, ptr %14, i32 0, i32 3
  %16 = load i32, ptr %15, align 8
  %17 = sext i32 %16 to i64
  %18 = sub nsw i64 %13, %17
  %19 = load i32, ptr %9, align 4
  %20 = sext i32 %19 to i64
  %21 = add nsw i64 %18, %20
  store i64 %21, ptr %5, align 8
  br label %27

22:                                               ; preds = %4
  %23 = load i64, ptr %8, align 8
  %24 = load i32, ptr %9, align 4
  %25 = sext i32 %24 to i64
  %26 = add nsw i64 %23, %25
  store i64 %26, ptr %5, align 8
  br label %27

27:                                               ; preds = %22, %12
  %28 = load i64, ptr %5, align 8
  ret i64 %28
}

; Function Attrs: nounwind uwtable
define hidden i64 @DAUDIO_GetBytePosition(ptr noundef %0, i32 noundef %1, i64 noundef %2) #0 {
  %4 = alloca ptr, align 8
  %5 = alloca i32, align 4
  %6 = alloca i64, align 8
  %7 = alloca ptr, align 8
  %8 = alloca i32, align 4
  %9 = alloca i64, align 8
  %10 = alloca i32, align 4
  %11 = alloca i64, align 8
  store ptr %0, ptr %4, align 8
  store i32 %1, ptr %5, align 4
  store i64 %2, ptr %6, align 8
  %12 = load ptr, ptr %4, align 8
  store ptr %12, ptr %7, align 8
  %13 = load i64, ptr %6, align 8
  store i64 %13, ptr %9, align 8
  %14 = load ptr, ptr %7, align 8
  %15 = getelementptr inbounds %struct.tag_AlsaPcmInfo, ptr %14, i32 0, i32 0
  %16 = load ptr, ptr %15, align 8
  %17 = call i32 @snd_pcm_state(ptr noundef %16)
  store i32 %17, ptr %10, align 4
  %18 = load ptr, ptr %7, align 8
  %19 = getelementptr inbounds %struct.tag_AlsaPcmInfo, ptr %18, i32 0, i32 8
  %20 = load i16, ptr %19, align 2
  %21 = icmp ne i16 %20, 0
  br i1 %21, label %54, label %22

22:                                               ; preds = %3
  %23 = load i32, ptr %10, align 4
  %24 = icmp ne i32 %23, 4
  br i1 %24, label %25, label %54

25:                                               ; preds = %22
  %26 = load ptr, ptr %7, align 8
  %27 = getelementptr inbounds %struct.tag_AlsaPcmInfo, ptr %26, i32 0, i32 0
  %28 = load ptr, ptr %27, align 8
  %29 = load ptr, ptr %7, align 8
  %30 = getelementptr inbounds %struct.tag_AlsaPcmInfo, ptr %29, i32 0, i32 9
  %31 = load ptr, ptr %30, align 8
  %32 = call i32 @snd_pcm_status(ptr noundef %28, ptr noundef %31)
  store i32 %32, ptr %8, align 4
  %33 = load i32, ptr %8, align 4
  %34 = icmp ne i32 %33, 0
  br i1 %34, label %35, label %37

35:                                               ; preds = %25
  %36 = load i64, ptr %6, align 8
  store i64 %36, ptr %9, align 8
  br label %53

37:                                               ; preds = %25
  %38 = load ptr, ptr %7, align 8
  %39 = getelementptr inbounds %struct.tag_AlsaPcmInfo, ptr %38, i32 0, i32 9
  %40 = load ptr, ptr %39, align 8
  %41 = call i64 @snd_pcm_status_get_avail(ptr noundef %40)
  store i64 %41, ptr %11, align 8
  %42 = load ptr, ptr %7, align 8
  %43 = load i32, ptr %5, align 4
  %44 = load i64, ptr %6, align 8
  %45 = load i64, ptr %11, align 8
  %46 = load ptr, ptr %7, align 8
  %47 = getelementptr inbounds %struct.tag_AlsaPcmInfo, ptr %46, i32 0, i32 4
  %48 = load i32, ptr %47, align 4
  %49 = sext i32 %48 to i64
  %50 = mul i64 %45, %49
  %51 = trunc i64 %50 to i32
  %52 = call i64 @estimatePositionFromAvail(ptr noundef %42, i32 noundef %43, i64 noundef %44, i32 noundef %51)
  store i64 %52, ptr %9, align 8
  br label %53

53:                                               ; preds = %37, %35
  br label %54

54:                                               ; preds = %53, %22, %3
  %55 = load i64, ptr %9, align 8
  ret i64 %55
}