; Function Attrs: nounwind uwtable
define hidden i64 @DAUDIO_GetBytePosition(ptr nocapture noundef readonly %0, i32 noundef %1, i64 noundef %2) local_unnamed_addr #0 {
  %4 = load ptr, ptr %0, align 8
  %5 = tail call i32 @snd_pcm_state(ptr noundef %4) #8
  %6 = getelementptr inbounds i8, ptr %0, i64 50
  %7 = load i16, ptr %6, align 2
  %8 = icmp eq i16 %7, 0
  %9 = icmp ne i32 %5, 4
  %or.cond = select i1 %8, i1 %9, i1 false
  br i1 %or.cond, label %10, label %estimatePositionFromAvail.exit

10:                                               ; preds = %3
  %11 = load ptr, ptr %0, align 8
  %12 = getelementptr inbounds i8, ptr %0, i64 56
  %13 = load ptr, ptr %12, align 8
  %14 = tail call i32 @snd_pcm_status(ptr noundef %11, ptr noundef %13) #8
  %.not = icmp eq i32 %14, 0
  br i1 %.not, label %15, label %estimatePositionFromAvail.exit

15:                                               ; preds = %10
  %16 = load ptr, ptr %12, align 8
  %17 = tail call i64 @snd_pcm_status_get_avail(ptr noundef %16) #8
  %18 = getelementptr inbounds i8, ptr %0, i64 28
  %19 = load i32, ptr %18, align 4
  %20 = trunc i64 %17 to i32
  %21 = mul i32 %19, %20
  %.not.i = icmp eq i32 %1, 0
  br i1 %.not.i, label %29, label %22

22:                                               ; preds = %15
  %23 = getelementptr inbounds i8, ptr %0, i64 24
  %24 = load i32, ptr %23, align 8
  %25 = sext i32 %24 to i64
  %26 = sext i32 %21 to i64
  %27 = add i64 %26, %2
  %28 = sub i64 %27, %25
  br label %estimatePositionFromAvail.exit

29:                                               ; preds = %15
  %30 = sext i32 %21 to i64
  %31 = add nsw i64 %30, %2
  br label %estimatePositionFromAvail.exit

estimatePositionFromAvail.exit:                   ; preds = %29, %22, %10, %3
  %.0 = phi i64 [ %2, %3 ], [ %2, %10 ], [ %28, %22 ], [ %31, %29 ]
  ret i64 %.0
}